target datalayout = "e-m:e-p270:32:32-p271:32:32-p272:64:64-i64:64-i128:128-f80:128-n8:16:32:64-S128"
target triple = "x86_64-pc-linux-gnu"

%struct.PaUtilBufferProcessor = type { i64, i64, i32, i32, i32, i32, i64, i32, i32, i32, i32, ptr, ptr, i32, i32, i32, i32, ptr, ptr, i64, i64, ptr, ptr, i64, ptr, ptr, i64, ptr, i64, i32, [2 x i64], [2 x ptr], i32, [2 x i64], [2 x ptr], %struct.PaUtilTriangularDitherGenerator, double, ptr, ptr }
%struct.PaUtilTriangularDitherGenerator = type { i32, i32, i32 }

; Function Attrs: nounwind uwtable
define void @PaUtil_ResetBufferProcessor(ptr noundef %0) #0 {
  %2 = alloca ptr, align 8
  %3 = alloca i64, align 8
  %4 = alloca i64, align 8
  store ptr %0, ptr %2, align 8
  %5 = load ptr, ptr %2, align 8
  %6 = getelementptr inbounds nuw %struct.PaUtilBufferProcessor, ptr %5, i32 0, i32 19
  %7 = load i64, ptr %6, align 8
  %8 = load ptr, ptr %2, align 8
  %9 = getelementptr inbounds nuw %struct.PaUtilBufferProcessor, ptr %8, i32 0, i32 23
  store i64 %7, ptr %9, align 8
  %10 = load ptr, ptr %2, align 8
  %11 = getelementptr inbounds nuw %struct.PaUtilBufferProcessor, ptr %10, i32 0, i32 20
  %12 = load i64, ptr %11, align 8
  %13 = load ptr, ptr %2, align 8
  %14 = getelementptr inbounds nuw %struct.PaUtilBufferProcessor, ptr %13, i32 0, i32 26
  store i64 %12, ptr %14, align 8
  %15 = load ptr, ptr %2, align 8
  %16 = getelementptr inbounds nuw %struct.PaUtilBufferProcessor, ptr %15, i32 0, i32 23
  %17 = load i64, ptr %16, align 8
  %18 = icmp ugt i64 %17, 0
  br i1 %18, label %19, label %37

19:                                               ; preds = %1
  %20 = load ptr, ptr %2, align 8
  %21 = getelementptr inbounds nuw %struct.PaUtilBufferProcessor, ptr %20, i32 0, i32 6
  %22 = load i64, ptr %21, align 8
  %23 = load ptr, ptr %2, align 8
  %24 = getelementptr inbounds nuw %struct.PaUtilBufferProcessor, ptr %23, i32 0, i32 9
  %25 = load i32, ptr %24, align 8
  %26 = zext i32 %25 to i64
  %27 = mul i64 %22, %26
  %28 = load ptr, ptr %2, align 8
  %29 = getelementptr inbounds nuw %struct.PaUtilBufferProcessor, ptr %28, i32 0, i32 7
  %30 = load i32, ptr %29, align 8
  %31 = zext i32 %30 to i64
  %32 = mul i64 %27, %31
  store i64 %32, ptr %3, align 8
  %33 = load ptr, ptr %2, align 8
  %34 = getelementptr inbounds nuw %struct.PaUtilBufferProcessor, ptr %33, i32 0, i32 21
  %35 = load ptr, ptr %34, align 8
  %36 = load i64, ptr %3, align 8
  call void @llvm.memset.p0.i64(ptr align 1 %35, i8 0, i64 %36, i1 false)
  br label %37

37:                                               ; preds = %19, %1
  %38 = load ptr, ptr %2, align 8
  %39 = getelementptr inbounds nuw %struct.PaUtilBufferProcessor, ptr %38, i32 0, i32 26
  %40 = load i64, ptr %39, align 8
  %41 = icmp ugt i64 %40, 0
  br i1 %41, label %42, label %60

42:                                               ; preds = %37
  %43 = load ptr, ptr %2, align 8
  %44 = getelementptr inbounds nuw %struct.PaUtilBufferProcessor, ptr %43, i32 0, i32 6
  %45 = load i64, ptr %44, align 8
  %46 = load ptr, ptr %2, align 8
  %47 = getelementptr inbounds nuw %struct.PaUtilBufferProcessor, ptr %46, i32 0, i32 15
  %48 = load i32, ptr %47, align 8
  %49 = zext i32 %48 to i64
  %50 = mul i64 %45, %49
  %51 = load ptr, ptr %2, align 8
  %52 = getelementptr inbounds nuw %struct.PaUtilBufferProcessor, ptr %51, i32 0, i32 13
  %53 = load i32, ptr %52, align 8
  %54 = zext i32 %53 to i64
  %55 = mul i64 %50, %54
  store i64 %55, ptr %4, align 8
  %56 = load ptr, ptr %2, align 8
  %57 = getelementptr inbounds nuw %struct.PaUtilBufferProcessor, ptr %56, i32 0, i32 24
  %58 = load ptr, ptr %57, align 8
  %59 = load i64, ptr %4, align 8
  call void @llvm.memset.p0.i64(ptr align 1 %58, i8 0, i64 %59, i1 false)
  br label %60

60:                                               ; preds = %42, %37
  ret void
}