; Function Attrs: mustprogress nofree norecurse nosync nounwind willreturn memory(write, argmem: readwrite, inaccessiblemem: none) uwtable
define void @PaUtil_ResetBufferProcessor(ptr nocapture noundef %0) local_unnamed_addr #2 {
  %2 = getelementptr inbounds nuw i8, ptr %0, i64 104
  %3 = load i64, ptr %2, align 8
  %4 = getelementptr inbounds nuw i8, ptr %0, i64 136
  store i64 %3, ptr %4, align 8
  %5 = getelementptr inbounds nuw i8, ptr %0, i64 112
  %6 = load i64, ptr %5, align 8
  %7 = getelementptr inbounds nuw i8, ptr %0, i64 160
  store i64 %6, ptr %7, align 8
  %.not = icmp eq i64 %3, 0
  br i1 %.not, label %21, label %8

8:                                                ; preds = %1
  %9 = getelementptr inbounds nuw i8, ptr %0, i64 32
  %10 = load i64, ptr %9, align 8
  %11 = getelementptr inbounds nuw i8, ptr %0, i64 48
  %12 = load i32, ptr %11, align 8
  %13 = zext i32 %12 to i64
  %14 = mul i64 %10, %13
  %15 = getelementptr inbounds nuw i8, ptr %0, i64 40
  %16 = load i32, ptr %15, align 8
  %17 = zext i32 %16 to i64
  %18 = mul i64 %14, %17
  %19 = getelementptr inbounds nuw i8, ptr %0, i64 120
  %20 = load ptr, ptr %19, align 8
  tail call void @llvm.memset.p0.i64(ptr align 1 %20, i8 0, i64 %18, i1 false)
  %.pr = load i64, ptr %7, align 8
  br label %21

21:                                               ; preds = %8, %1
  %22 = phi i64 [ %.pr, %8 ], [ %6, %1 ]
  %.not15 = icmp eq i64 %22, 0
  br i1 %.not15, label %36, label %23

23:                                               ; preds = %21
  %24 = getelementptr inbounds nuw i8, ptr %0, i64 32
  %25 = load i64, ptr %24, align 8
  %26 = getelementptr inbounds nuw i8, ptr %0, i64 80
  %27 = load i32, ptr %26, align 8
  %28 = zext i32 %27 to i64
  %29 = mul i64 %25, %28
  %30 = getelementptr inbounds nuw i8, ptr %0, i64 72
  %31 = load i32, ptr %30, align 8
  %32 = zext i32 %31 to i64
  %33 = mul i64 %29, %32
  %34 = getelementptr inbounds nuw i8, ptr %0, i64 144
  %35 = load ptr, ptr %34, align 8
  tail call void @llvm.memset.p0.i64(ptr align 1 %35, i8 0, i64 %33, i1 false)
  br label %36

36:                                               ; preds = %23, %21
  ret void
}